target datalayout = "e-m:e-p270:32:32-p271:32:32-p272:64:64-i64:64-i128:128-f80:128-n8:16:32:64-S128"
target triple = "x86_64-pc-linux-gnu"

%struct.CFF_FDSelectRec_ = type { i8, i32, ptr, i32, i32, i32, i8 }

; Function Attrs: nounwind uwtable
define internal zeroext i8 @cff_fd_select_get(ptr noundef %0, i32 noundef %1) #0 {
  %3 = alloca ptr, align 8
  %4 = alloca i32, align 4
  %5 = alloca i8, align 1
  %6 = alloca ptr, align 8
  %7 = alloca ptr, align 8
  %8 = alloca i8, align 1
  %9 = alloca i32, align 4
  %10 = alloca i32, align 4
  store ptr %0, ptr %3, align 8
  store i32 %1, ptr %4, align 4
  store i8 0, ptr %5, align 1
  %11 = load ptr, ptr %3, align 8
  %12 = getelementptr inbounds %struct.CFF_FDSelectRec_, ptr %11, i32 0, i32 2
  %13 = load ptr, ptr %12, align 8
  %14 = icmp ne ptr %13, null
  br i1 %14, label %16, label %15

15:                                               ; preds = %2
  br label %125

16:                                               ; preds = %2
  %17 = load ptr, ptr %3, align 8
  %18 = getelementptr inbounds %struct.CFF_FDSelectRec_, ptr %17, i32 0, i32 0
  %19 = load i8, ptr %18, align 8
  %20 = zext i8 %19 to i32
  switch i32 %20, label %123 [
    i32 0, label %21
    i32 3, label %29
  ]

21:                                               ; preds = %16
  %22 = load ptr, ptr %3, align 8
  %23 = getelementptr inbounds %struct.CFF_FDSelectRec_, ptr %22, i32 0, i32 2
  %24 = load ptr, ptr %23, align 8
  %25 = load i32, ptr %4, align 4
  %26 = zext i32 %25 to i64
  %27 = getelementptr inbounds i8, ptr %24, i64 %26
  %28 = load i8, ptr %27, align 1
  store i8 %28, ptr %5, align 1
  br label %124

29:                                               ; preds = %16
  %30 = load i32, ptr %4, align 4
  %31 = load ptr, ptr %3, align 8
  %32 = getelementptr inbounds %struct.CFF_FDSelectRec_, ptr %31, i32 0, i32 4
  %33 = load i32, ptr %32, align 4
  %34 = sub i32 %30, %33
  %35 = load ptr, ptr %3, align 8
  %36 = getelementptr inbounds %struct.CFF_FDSelectRec_, ptr %35, i32 0, i32 5
  %37 = load i32, ptr %36, align 8
  %38 = icmp ult i32 %34, %37
  br i1 %38, label %39, label %43

39:                                               ; preds = %29
  %40 = load ptr, ptr %3, align 8
  %41 = getelementptr inbounds %struct.CFF_FDSelectRec_, ptr %40, i32 0, i32 6
  %42 = load i8, ptr %41, align 4
  store i8 %42, ptr %5, align 1
  br label %124

43:                                               ; preds = %29
  %44 = load ptr, ptr %3, align 8
  %45 = getelementptr inbounds %struct.CFF_FDSelectRec_, ptr %44, i32 0, i32 2
  %46 = load ptr, ptr %45, align 8
  store ptr %46, ptr %6, align 8
  %47 = load ptr, ptr %6, align 8
  %48 = load ptr, ptr %3, align 8
  %49 = getelementptr inbounds %struct.CFF_FDSelectRec_, ptr %48, i32 0, i32 3
  %50 = load i32, ptr %49, align 8
  %51 = zext i32 %50 to i64
  %52 = getelementptr inbounds i8, ptr %47, i64 %51
  store ptr %52, ptr %7, align 8
  %53 = load ptr, ptr %6, align 8
  %54 = getelementptr inbounds i8, ptr %53, i64 2
  store ptr %54, ptr %6, align 8
  %55 = load ptr, ptr %6, align 8
  %56 = getelementptr inbounds i8, ptr %55, i64 -2
  %57 = getelementptr inbounds i8, ptr %56, i64 0
  %58 = load i8, ptr %57, align 1
  %59 = zext i8 %58 to i16
  %60 = zext i16 %59 to i32
  %61 = shl i32 %60, 8
  %62 = load ptr, ptr %6, align 8
  %63 = getelementptr inbounds i8, ptr %62, i64 -2
  %64 = getelementptr inbounds i8, ptr %63, i64 1
  %65 = load i8, ptr %64, align 1
  %66 = zext i8 %65 to i16
  %67 = zext i16 %66 to i32
  %68 = shl i32 %67, 0
  %69 = or i32 %61, %68
  %70 = trunc i32 %69 to i16
  %71 = zext i16 %70 to i32
  store i32 %71, ptr %9, align 4
  br label %72

72:                                               ; preds = %118, %43
  %73 = load i32, ptr %4, align 4
  %74 = load i32, ptr %9, align 4
  %75 = icmp ult i32 %73, %74
  br i1 %75, label %76, label %77

76:                                               ; preds = %72
  br label %122

77:                                               ; preds = %72
  %78 = load ptr, ptr %6, align 8
  %79 = getelementptr inbounds i8, ptr %78, i32 1
  store ptr %79, ptr %6, align 8
  %80 = load i8, ptr %78, align 1
  store i8 %80, ptr %8, align 1
  %81 = load ptr, ptr %6, align 8
  %82 = getelementptr inbounds i8, ptr %81, i64 2
  store ptr %82, ptr %6, align 8
  %83 = load ptr, ptr %6, align 8
  %84 = getelementptr inbounds i8, ptr %83, i64 -2
  %85 = getelementptr inbounds i8, ptr %84, i64 0
  %86 = load i8, ptr %85, align 1
  %87 = zext i8 %86 to i16
  %88 = zext i16 %87 to i32
  %89 = shl i32 %88, 8
  %90 = load ptr, ptr %6, align 8
  %91 = getelementptr inbounds i8, ptr %90, i64 -2
  %92 = getelementptr inbounds i8, ptr %91, i64 1
  %93 = load i8, ptr %92, align 1
  %94 = zext i8 %93 to i16
  %95 = zext i16 %94 to i32
  %96 = shl i32 %95, 0
  %97 = or i32 %89, %96
  %98 = trunc i32 %97 to i16
  %99 = zext i16 %98 to i32
  store i32 %99, ptr %10, align 4
  %100 = load i32, ptr %4, align 4
  %101 = load i32, ptr %10, align 4
  %102 = icmp ult i32 %100, %101
  br i1 %102, label %103, label %116

103:                                              ; preds = %77
  %104 = load i8, ptr %8, align 1
  store i8 %104, ptr %5, align 1
  %105 = load i32, ptr %9, align 4
  %106 = load ptr, ptr %3, align 8
  %107 = getelementptr inbounds %struct.CFF_FDSelectRec_, ptr %106, i32 0, i32 4
  store i32 %105, ptr %107, align 4
  %108 = load i32, ptr %10, align 4
  %109 = load i32, ptr %9, align 4
  %110 = sub i32 %108, %109
  %111 = load ptr, ptr %3, align 8
  %112 = getelementptr inbounds %struct.CFF_FDSelectRec_, ptr %111, i32 0, i32 5
  store i32 %110, ptr %112, align 8
  %113 = load i8, ptr %8, align 1
  %114 = load ptr, ptr %3, align 8
  %115 = getelementptr inbounds %struct.CFF_FDSelectRec_, ptr %114, i32 0, i32 6
  store i8 %113, ptr %115, align 4
  br label %122

116:                                              ; preds = %77
  %117 = load i32, ptr %10, align 4
  store i32 %117, ptr %9, align 4
  br label %118

118:                                              ; preds = %116
  %119 = load ptr, ptr %6, align 8
  %120 = load ptr, ptr %7, align 8
  %121 = icmp ult ptr %119, %120
  br i1 %121, label %72, label %122, !llvm.loop !19

122:                                              ; preds = %118, %103, %76
  br label %124

123:                                              ; preds = %16
  br label %124

124:                                              ; preds = %123, %122, %39, %21
  br label %125

125:                                              ; preds = %124, %15
  %126 = load i8, ptr %5, align 1
  ret i8 %126
}