; Function Attrs: nofree norecurse nosync nounwind memory(read, argmem: readwrite, inaccessiblemem: none) uwtable
define internal zeroext i8 @cff_fd_select_get(ptr nocapture noundef %0, i32 noundef %1) #3 {
  %3 = getelementptr inbounds i8, ptr %0, i64 8
  %4 = load ptr, ptr %3, align 8
  %.not = icmp eq ptr %4, null
  br i1 %.not, label %.loopexit, label %5

5:                                                ; preds = %2
  %6 = load i8, ptr %0, align 8
  switch i8 %6, label %.loopexit [
    i8 0, label %7
    i8 3, label %11
  ]

7:                                                ; preds = %5
  %8 = zext i32 %1 to i64
  %9 = getelementptr inbounds i8, ptr %4, i64 %8
  %10 = load i8, ptr %9, align 1
  br label %.loopexit

11:                                               ; preds = %5
  %12 = getelementptr inbounds i8, ptr %0, i64 20
  %13 = load i32, ptr %12, align 4
  %14 = sub i32 %1, %13
  %15 = getelementptr inbounds i8, ptr %0, i64 24
  %16 = load i32, ptr %15, align 8
  %17 = icmp ult i32 %14, %16
  br i1 %17, label %18, label %21

18:                                               ; preds = %11
  %19 = getelementptr inbounds i8, ptr %0, i64 28
  %20 = load i8, ptr %19, align 4
  br label %.loopexit

21:                                               ; preds = %11
  %22 = getelementptr inbounds i8, ptr %0, i64 16
  %23 = load i32, ptr %22, align 8
  %24 = zext i32 %23 to i64
  %25 = getelementptr inbounds i8, ptr %4, i64 %24
  %26 = getelementptr inbounds i8, ptr %4, i64 2
  %27 = load i8, ptr %4, align 1
  %28 = zext i8 %27 to i32
  %29 = shl nuw nsw i32 %28, 8
  %30 = getelementptr inbounds i8, ptr %4, i64 1
  %31 = load i8, ptr %30, align 1
  %32 = zext i8 %31 to i32
  %33 = or disjoint i32 %29, %32
  br label %34

34:                                               ; preds = %50, %21
  %.034 = phi ptr [ %26, %21 ], [ %51, %50 ]
  %.033 = phi i32 [ %33, %21 ], [ %44, %50 ]
  %35 = icmp ugt i32 %.033, %1
  br i1 %35, label %.loopexit, label %36

36:                                               ; preds = %34
  %37 = getelementptr inbounds i8, ptr %.034, i64 1
  %38 = load i8, ptr %37, align 1
  %39 = zext i8 %38 to i32
  %40 = shl nuw nsw i32 %39, 8
  %41 = getelementptr inbounds i8, ptr %.034, i64 2
  %42 = load i8, ptr %41, align 1
  %43 = zext i8 %42 to i32
  %44 = or disjoint i32 %40, %43
  %45 = icmp ugt i32 %44, %1
  br i1 %45, label %46, label %50

46:                                               ; preds = %36
  %47 = load i8, ptr %.034, align 1
  store i32 %.033, ptr %12, align 4
  %48 = sub nsw i32 %44, %.033
  store i32 %48, ptr %15, align 8
  %49 = getelementptr inbounds i8, ptr %0, i64 28
  store i8 %47, ptr %49, align 4
  br label %.loopexit

50:                                               ; preds = %36
  %51 = getelementptr inbounds i8, ptr %.034, i64 3
  %52 = icmp ult ptr %51, %25
  br i1 %52, label %34, label %.loopexit, !llvm.loop !13

.loopexit:                                        ; preds = %34, %50, %7, %18, %46, %5, %2
  %.0 = phi i8 [ 0, %5 ], [ %20, %18 ], [ %47, %46 ], [ %10, %7 ], [ 0, %2 ], [ 0, %50 ], [ 0, %34 ]
  ret i8 %.0
}